target datalayout = "e-m:e-p270:32:32-p271:32:32-p272:64:64-i64:64-i128:128-f80:128-n8:16:32:64-S128"
target triple = "x86_64-pc-linux-gnu"

%struct.FunctionCallInfoBaseData = type { ptr, ptr, ptr, i32, i8, i16, [0 x %struct.NullableDatum] }
%struct.NullableDatum = type { i64, i8 }

; Function Attrs: inlinehint nounwind uwtable
define internal i64 @PointerGetDatum(ptr noundef %0) #6 {
  %2 = alloca ptr, align 8
  store ptr %0, ptr %2, align 8
  %3 = load ptr, ptr %2, align 8
  %4 = ptrtoint ptr %3 to i64
  ret i64 %4
}

; Function Attrs: inlinehint nounwind uwtable
define internal ptr @DatumGetPointer(i64 noundef %0) #6 {
  %2 = alloca i64, align 8
  store i64 %0, ptr %2, align 8
  %3 = load i64, ptr %2, align 8
  %4 = inttoptr i64 %3 to ptr
  ret ptr %4
}

; Function Attrs: nounwind uwtable
define dso_local i64 @similar_escape(ptr noundef %0) #0 {
  %2 = alloca i64, align 8
  %3 = alloca ptr, align 8
  %4 = alloca ptr, align 8
  %5 = alloca ptr, align 8
  %6 = alloca ptr, align 8
  %7 = alloca i32, align 4
  store ptr %0, ptr %3, align 8
  call void @llvm.lifetime.start.p0(i64 8, ptr %4) #8
  call void @llvm.lifetime.start.p0(i64 8, ptr %5) #8
  call void @llvm.lifetime.start.p0(i64 8, ptr %6) #8
  %8 = load ptr, ptr %3, align 8
  %9 = getelementptr inbounds nuw %struct.FunctionCallInfoBaseData, ptr %8, i32 0, i32 6
  %10 = getelementptr inbounds [0 x %struct.NullableDatum], ptr %9, i64 0, i64 0
  %11 = getelementptr inbounds nuw %struct.NullableDatum, ptr %10, i32 0, i32 1
  %12 = load i8, ptr %11, align 8, !range !6, !noundef !7
  %13 = trunc i8 %12 to i1
  br i1 %13, label %14, label %20

14:                                               ; preds = %1
  br label %15

15:                                               ; preds = %14
  %16 = load ptr, ptr %3, align 8
  %17 = getelementptr inbounds nuw %struct.FunctionCallInfoBaseData, ptr %16, i32 0, i32 4
  store i8 1, ptr %17, align 4
  store i64 0, ptr %2, align 8
  store i32 1, ptr %7, align 4
  br label %49

18:                                               ; No predecessors!
  br label %19

19:                                               ; preds = %18
  br label %20

20:                                               ; preds = %19, %1
  %21 = load ptr, ptr %3, align 8
  %22 = getelementptr inbounds nuw %struct.FunctionCallInfoBaseData, ptr %21, i32 0, i32 6
  %23 = getelementptr inbounds [0 x %struct.NullableDatum], ptr %22, i64 0, i64 0
  %24 = getelementptr inbounds nuw %struct.NullableDatum, ptr %23, i32 0, i32 0
  %25 = load i64, ptr %24, align 8
  %26 = call ptr @DatumGetPointer(i64 noundef %25)
  %27 = call ptr @pg_detoast_datum_packed(ptr noundef %26)
  store ptr %27, ptr %4, align 8
  %28 = load ptr, ptr %3, align 8
  %29 = getelementptr inbounds nuw %struct.FunctionCallInfoBaseData, ptr %28, i32 0, i32 6
  %30 = getelementptr inbounds [0 x %struct.NullableDatum], ptr %29, i64 0, i64 1
  %31 = getelementptr inbounds nuw %struct.NullableDatum, ptr %30, i32 0, i32 1
  %32 = load i8, ptr %31, align 8, !range !6, !noundef !7
  %33 = trunc i8 %32 to i1
  br i1 %33, label %34, label %35

34:                                               ; preds = %20
  store ptr null, ptr %5, align 8
  br label %43

35:                                               ; preds = %20
  %36 = load ptr, ptr %3, align 8
  %37 = getelementptr inbounds nuw %struct.FunctionCallInfoBaseData, ptr %36, i32 0, i32 6
  %38 = getelementptr inbounds [0 x %struct.NullableDatum], ptr %37, i64 0, i64 1
  %39 = getelementptr inbounds nuw %struct.NullableDatum, ptr %38, i32 0, i32 0
  %40 = load i64, ptr %39, align 8
  %41 = call ptr @DatumGetPointer(i64 noundef %40)
  %42 = call ptr @pg_detoast_datum_packed(ptr noundef %41)
  store ptr %42, ptr %5, align 8
  br label %43

43:                                               ; preds = %35, %34
  %44 = load ptr, ptr %4, align 8
  %45 = load ptr, ptr %5, align 8
  %46 = call ptr @similar_escape_internal(ptr noundef %44, ptr noundef %45)
  store ptr %46, ptr %6, align 8
  %47 = load ptr, ptr %6, align 8
  %48 = call i64 @PointerGetDatum(ptr noundef %47)
  store i64 %48, ptr %2, align 8
  store i32 1, ptr %7, align 4
  br label %49

49:                                               ; preds = %43, %15
  call void @llvm.lifetime.end.p0(i64 8, ptr %6) #8
  call void @llvm.lifetime.end.p0(i64 8, ptr %5) #8
  call void @llvm.lifetime.end.p0(i64 8, ptr %4) #8
  %50 = load i64, ptr %2, align 8
  ret i64 %50
}