; Function Attrs: nounwind uwtable
define dso_local i64 @similar_escape(ptr noundef captures(none) %0) local_unnamed_addr #0 {
  %2 = getelementptr inbounds nuw i8, ptr %0, i64 40
  %3 = load i8, ptr %2, align 8, !range !7, !noundef !8
  %4 = trunc nuw i8 %3 to i1
  br i1 %4, label %5, label %7

5:                                                ; preds = %1
  %6 = getelementptr inbounds nuw i8, ptr %0, i64 28
  store i8 1, ptr %6, align 4
  br label %23

7:                                                ; preds = %1
  %8 = getelementptr inbounds nuw i8, ptr %0, i64 32
  %9 = load i64, ptr %8, align 8
  %10 = inttoptr i64 %9 to ptr
  %11 = tail call ptr @pg_detoast_datum_packed(ptr noundef %10) #9
  %12 = getelementptr inbounds nuw i8, ptr %0, i64 56
  %13 = load i8, ptr %12, align 8, !range !7, !noundef !8
  %14 = trunc nuw i8 %13 to i1
  br i1 %14, label %20, label %15

15:                                               ; preds = %7
  %16 = getelementptr inbounds nuw i8, ptr %0, i64 48
  %17 = load i64, ptr %16, align 8
  %18 = inttoptr i64 %17 to ptr
  %19 = tail call ptr @pg_detoast_datum_packed(ptr noundef %18) #9
  br label %20

20:                                               ; preds = %7, %15
  %.08 = phi ptr [ %19, %15 ], [ null, %7 ]
  %21 = tail call fastcc ptr @similar_escape_internal(ptr noundef %11, ptr noundef %.08)
  %22 = ptrtoint ptr %21 to i64
  br label %23

23:                                               ; preds = %20, %5
  %.0 = phi i64 [ 0, %5 ], [ %22, %20 ]
  ret i64 %.0
}